target datalayout = "e-m:e-p270:32:32-p271:32:32-p272:64:64-i64:64-i128:128-f80:128-n8:16:32:64-S128"
target triple = "x86_64-pc-linux-gnu"

%"struct.std::_Rb_tree_header" = type { %"struct.std::_Rb_tree_node_base", i64 }
%"struct.std::_Rb_tree_node_base" = type { i32, ptr, ptr, ptr }
%"class.std::__cxx11::basic_string" = type { %"struct.std::__cxx11::basic_string<char>::_Alloc_hider", i64, %union.anon }
%"struct.std::__cxx11::basic_string<char>::_Alloc_hider" = type { ptr }
%union.anon = type { i64, [8 x i8] }
%"class.absl::lts_20240722::Status" = type { i64 }
%"class.grpc_core::RefCount" = type { %"struct.std::atomic" }
%"struct.std::atomic" = type { %"struct.std::__atomic_base" }
%"struct.std::__atomic_base" = type { i64 }
%"class.grpc_core::RefCountedPtr.166" = type { ptr }
%"class.std::unique_ptr.167" = type { %"struct.std::__uniq_ptr_data.168" }
%"struct.std::__uniq_ptr_data.168" = type { %"class.std::__uniq_ptr_impl.169" }
%"class.std::__uniq_ptr_impl.169" = type { %"class.std::tuple.170" }
%"class.std::tuple.170" = type { %"struct.std::_Tuple_impl.171" }
%"struct.std::_Tuple_impl.171" = type { %"struct.std::_Head_base.174" }
%"struct.std::_Head_base.174" = type { ptr }
%"class.std::shared_ptr" = type { %"class.std::__shared_ptr" }
%"class.std::__shared_ptr" = type { ptr, %"class.std::__shared_count" }
%"class.std::__shared_count" = type { ptr }
%"class.std::unique_ptr.175" = type { %"struct.std::__uniq_ptr_data.176" }
%"struct.std::__uniq_ptr_data.176" = type { %"class.std::__uniq_ptr_impl.177" }
%"class.std::__uniq_ptr_impl.177" = type { %"class.std::tuple.178" }
%"class.std::tuple.178" = type { %"struct.std::_Tuple_impl.179" }
%"struct.std::_Tuple_impl.179" = type { %"struct.std::_Head_base.182" }
%"struct.std::_Head_base.182" = type { ptr }
%"class.grpc_core::ChannelArgs" = type { %"class.grpc_core::AVL" }
%"class.grpc_core::AVL" = type { %"class.grpc_core::RefCountedPtr.183" }
%"class.grpc_core::RefCountedPtr.183" = type { ptr }
%"class.grpc_core::Duration" = type { i64 }
%"class.grpc_core::BackOff::Options" = type { %"class.grpc_core::Duration", double, double, %"class.grpc_core::Duration" }
%"class.grpc_core::(anonymous namespace)::GrpcLb" = type { %"class.grpc_core::LoadBalancingPolicy", %"class.grpc_core::RefCountedPtr.166", %"class.grpc_core::ChannelArgs", i8, %"class.grpc_core::RefCountedPtr.190", ptr, %"class.grpc_core::RefCountedPtr.191", %"class.grpc_core::RefCountedPtr.192", %"class.std::unique_ptr.193", %"class.grpc_core::Duration", %"class.grpc_core::BackOff", %"class.std::optional", %"class.grpc_core::RefCountedPtr.200", i8, %"class.absl::lts_20240722::StatusOr.201", %"class.std::__cxx11::basic_string", %"class.grpc_core::Duration", i8, [7 x i8], %"class.std::optional", %"class.std::unique_ptr.167", i8, %"class.grpc_core::Duration", %"class.std::map.212", %"class.std::optional" }
%"class.grpc_core::LoadBalancingPolicy" = type { %"class.grpc_core::InternallyRefCounted", %"class.std::shared_ptr", ptr, %"class.std::unique_ptr.175", %"class.grpc_core::ChannelArgs" }
%"class.grpc_core::InternallyRefCounted" = type { %"class.grpc_core::Orphanable", %"class.grpc_core::RefCount" }
%"class.grpc_core::Orphanable" = type { ptr }
%"class.grpc_core::RefCountedPtr.190" = type { ptr }
%"class.grpc_core::RefCountedPtr.191" = type { ptr }
%"class.grpc_core::RefCountedPtr.192" = type { ptr }
%"class.std::unique_ptr.193" = type { %"struct.std::__uniq_ptr_data.194" }
%"struct.std::__uniq_ptr_data.194" = type { %"class.std::__uniq_ptr_impl.195" }
%"class.std::__uniq_ptr_impl.195" = type { %"class.std::tuple.196" }
%"class.std::tuple.196" = type { %"struct.std::_Tuple_impl.197" }
%"struct.std::_Tuple_impl.197" = type { %"struct.std::_Head_base.198" }
%"struct.std::_Head_base.198" = type { ptr }
%"class.grpc_core::BackOff" = type { %"class.grpc_core::BackOff::Options", %"class.absl::lts_20240722::random_internal::NonsecureURBGBase", i8, %"class.grpc_core::Duration" }
%"class.absl::lts_20240722::random_internal::NonsecureURBGBase" = type { %"class.absl::lts_20240722::random_internal::randen_engine" }
%"class.absl::lts_20240722::random_internal::randen_engine" = type { [264 x i8], i64, %"class.absl::lts_20240722::random_internal::Randen" }
%"class.absl::lts_20240722::random_internal::Randen" = type <{ ptr, i8, [7 x i8] }>
%"class.grpc_core::RefCountedPtr.200" = type { ptr }
%"class.absl::lts_20240722::StatusOr.201" = type { %"class.absl::lts_20240722::internal_statusor::StatusOrData.202" }
%"class.absl::lts_20240722::internal_statusor::StatusOrData.202" = type { %union.anon.203, %union.anon.204 }
%union.anon.203 = type { %"class.absl::lts_20240722::Status" }
%union.anon.204 = type { %"class.std::shared_ptr.205" }
%"class.std::shared_ptr.205" = type { %"class.std::__shared_ptr.206" }
%"class.std::__shared_ptr.206" = type { ptr, %"class.std::__shared_count" }
%"class.std::map.212" = type { %"class.std::_Rb_tree.213" }
%"class.std::_Rb_tree.213" = type { %"struct.std::_Rb_tree<grpc_core::Timestamp, std::pair<const grpc_core::Timestamp, std::vector<grpc_core::RefCountedPtr<grpc_core::SubchannelInterface>>>, std::_Select1st<std::pair<const grpc_core::Timestamp, std::vector<grpc_core::RefCountedPtr<grpc_core::SubchannelInterface>>>>, std::less<grpc_core::Timestamp>>::_Rb_tree_impl" }
%"struct.std::_Rb_tree<grpc_core::Timestamp, std::pair<const grpc_core::Timestamp, std::vector<grpc_core::RefCountedPtr<grpc_core::SubchannelInterface>>>, std::_Select1st<std::pair<const grpc_core::Timestamp, std::vector<grpc_core::RefCountedPtr<grpc_core::SubchannelInterface>>>>, std::less<grpc_core::Timestamp>>::_Rb_tree_impl" = type { [8 x i8], %"struct.std::_Rb_tree_header" }
%"class.std::optional" = type { %"struct.std::_Optional_base" }
%"struct.std::_Optional_base" = type { %"struct.std::_Optional_payload" }
%"struct.std::_Optional_payload" = type { %"struct.std::_Optional_payload_base.base", [7 x i8] }
%"struct.std::_Optional_payload_base.base" = type <{ %"union.std::_Optional_payload_base<grpc_event_engine::experimental::EventEngine::TaskHandle>::_Storage", i8 }>
%"union.std::_Optional_payload_base<grpc_event_engine::experimental::EventEngine::TaskHandle>::_Storage" = type { %"struct.grpc_event_engine::experimental::EventEngine::TaskHandle" }
%"struct.grpc_event_engine::experimental::EventEngine::TaskHandle" = type { [2 x i64] }
%"class.grpc_core::RefCountedPtr.302" = type { ptr }
%"class.grpc_core::LoadBalancingPolicy::ParentOwningDelegatingChannelControlHelper" = type { %"class.grpc_core::LoadBalancingPolicy::DelegatingChannelControlHelper", %"class.grpc_core::RefCountedPtr.302" }
%"class.grpc_core::LoadBalancingPolicy::DelegatingChannelControlHelper" = type { %"class.grpc_core::LoadBalancingPolicy::ChannelControlHelper" }
%"class.grpc_core::LoadBalancingPolicy::ChannelControlHelper" = type { ptr }

; Function Attrs: mustprogress nounwind uwtable
define linkonce_odr noundef nonnull align 8 dereferenceable(8) ptr @_ZNSt10_Head_baseILm0EPN9grpc_core19LoadBalancingPolicy20ChannelControlHelperELb0EE7_M_headERKS4_(ptr noundef nonnull align 8 dereferenceable(8) %0) #5 comdat align 2 {
  %2 = alloca ptr, align 8
  store ptr %0, ptr %2, align 8, !tbaa !528
  %3 = load ptr, ptr %2, align 8, !tbaa !528
  %4 = getelementptr inbounds nuw %"struct.std::_Head_base.182", ptr %3, i32 0, i32 0
  ret ptr %4
}

; Function Attrs: mustprogress nounwind uwtable
define linkonce_odr noundef nonnull align 8 dereferenceable(8) ptr @_ZNSt11_Tuple_implILm0EJPN9grpc_core19LoadBalancingPolicy20ChannelControlHelperESt14default_deleteIS2_EEE7_M_headERKS6_(ptr noundef nonnull align 8 dereferenceable(8) %0) #5 comdat align 2 {
  %2 = alloca ptr, align 8
  store ptr %0, ptr %2, align 8, !tbaa !523
  %3 = load ptr, ptr %2, align 8, !tbaa !523
  %4 = call noundef nonnull align 8 dereferenceable(8) ptr @_ZNSt10_Head_baseILm0EPN9grpc_core19LoadBalancingPolicy20ChannelControlHelperELb0EE7_M_headERKS4_(ptr noundef nonnull align 8 dereferenceable(8) %3) #3
  ret ptr %4
}

; Function Attrs: mustprogress nounwind uwtable
define linkonce_odr noundef nonnull align 8 dereferenceable(8) ptr @_ZSt12__get_helperILm0EPN9grpc_core19LoadBalancingPolicy20ChannelControlHelperEJSt14default_deleteIS2_EEERKT0_RKSt11_Tuple_implIXT_EJS6_DpT1_EE(ptr noundef nonnull align 8 dereferenceable(8) %0) #5 comdat {
  %2 = alloca ptr, align 8
  store ptr %0, ptr %2, align 8, !tbaa !523
  %3 = load ptr, ptr %2, align 8, !tbaa !523
  %4 = call noundef nonnull align 8 dereferenceable(8) ptr @_ZNSt11_Tuple_implILm0EJPN9grpc_core19LoadBalancingPolicy20ChannelControlHelperESt14default_deleteIS2_EEE7_M_headERKS6_(ptr noundef nonnull align 8 dereferenceable(8) %3) #3
  ret ptr %4
}

; Function Attrs: mustprogress nounwind uwtable
define linkonce_odr noundef nonnull align 8 dereferenceable(8) ptr @_ZSt3getILm0EJPN9grpc_core19LoadBalancingPolicy20ChannelControlHelperESt14default_deleteIS2_EEERKNSt13tuple_elementIXT_ESt5tupleIJDpT0_EEE4typeERKSA_(ptr noundef nonnull align 8 dereferenceable(8) %0) #5 comdat {
  %2 = alloca ptr, align 8
  store ptr %0, ptr %2, align 8, !tbaa !521
  %3 = load ptr, ptr %2, align 8, !tbaa !521
  %4 = call noundef nonnull align 8 dereferenceable(8) ptr @_ZSt12__get_helperILm0EPN9grpc_core19LoadBalancingPolicy20ChannelControlHelperEJSt14default_deleteIS2_EEERKT0_RKSt11_Tuple_implIXT_EJS6_DpT1_EE(ptr noundef nonnull align 8 dereferenceable(8) %3) #3
  ret ptr %4
}

; Function Attrs: mustprogress nounwind uwtable
define linkonce_odr noundef ptr @_ZNKSt15__uniq_ptr_implIN9grpc_core19LoadBalancingPolicy20ChannelControlHelperESt14default_deleteIS2_EE6_M_ptrEv(ptr noundef nonnull align 8 dereferenceable(8) %0) #5 comdat align 2 {
  %2 = alloca ptr, align 8
  store ptr %0, ptr %2, align 8, !tbaa !518
  %3 = load ptr, ptr %2, align 8
  %4 = getelementptr inbounds nuw %"class.std::__uniq_ptr_impl.177", ptr %3, i32 0, i32 0
  %5 = call noundef nonnull align 8 dereferenceable(8) ptr @_ZSt3getILm0EJPN9grpc_core19LoadBalancingPolicy20ChannelControlHelperESt14default_deleteIS2_EEERKNSt13tuple_elementIXT_ESt5tupleIJDpT0_EEE4typeERKSA_(ptr noundef nonnull align 8 dereferenceable(8) %4) #3
  %6 = load ptr, ptr %5, align 8, !tbaa !520
  ret ptr %6
}

; Function Attrs: mustprogress nounwind uwtable
define linkonce_odr noundef ptr @_ZNKSt10unique_ptrIN9grpc_core19LoadBalancingPolicy20ChannelControlHelperESt14default_deleteIS2_EE3getEv(ptr noundef nonnull align 8 dereferenceable(8) %0) #5 comdat align 2 {
  %2 = alloca ptr, align 8
  store ptr %0, ptr %2, align 8, !tbaa !510
  %3 = load ptr, ptr %2, align 8
  %4 = getelementptr inbounds nuw %"class.std::unique_ptr.175", ptr %3, i32 0, i32 0
  %5 = call noundef ptr @_ZNKSt15__uniq_ptr_implIN9grpc_core19LoadBalancingPolicy20ChannelControlHelperESt14default_deleteIS2_EE6_M_ptrEv(ptr noundef nonnull align 8 dereferenceable(8) %4) #3
  ret ptr %5
}

; Function Attrs: mustprogress nounwind uwtable
define linkonce_odr noundef ptr @_ZNK9grpc_core13RefCountedPtrINS_19LoadBalancingPolicyEE3getEv(ptr noundef nonnull align 8 dereferenceable(8) %0) #5 comdat align 2 {
  %2 = alloca ptr, align 8
  store ptr %0, ptr %2, align 8, !tbaa !731
  %3 = load ptr, ptr %2, align 8
  %4 = getelementptr inbounds nuw %"class.grpc_core::RefCountedPtr.302", ptr %3, i32 0, i32 0
  %5 = load ptr, ptr %4, align 8, !tbaa !733
  ret ptr %5
}

; Function Attrs: mustprogress nounwind uwtable
define linkonce_odr noundef ptr @_ZNK9grpc_core19LoadBalancingPolicy22channel_control_helperEv(ptr noundef nonnull align 8 dereferenceable(56) %0) #5 comdat align 2 {
  %2 = alloca ptr, align 8
  store ptr %0, ptr %2, align 8, !tbaa !540
  %3 = load ptr, ptr %2, align 8
  %4 = getelementptr inbounds nuw %"class.grpc_core::LoadBalancingPolicy", ptr %3, i32 0, i32 3
  %5 = call noundef ptr @_ZNKSt10unique_ptrIN9grpc_core19LoadBalancingPolicy20ChannelControlHelperESt14default_deleteIS2_EE3getEv(ptr noundef nonnull align 8 dereferenceable(8) %4) #3
  ret ptr %5
}

; Function Attrs: mustprogress nounwind uwtable
define internal noundef ptr @_ZNK9grpc_core19LoadBalancingPolicy42ParentOwningDelegatingChannelControlHelperINS_12_GLOBAL__N_16GrpcLbEE6parentEv(ptr noundef nonnull align 8 dereferenceable(16) %0) #5 align 2 {
  %2 = alloca ptr, align 8
  store ptr %0, ptr %2, align 8, !tbaa !1131
  %3 = load ptr, ptr %2, align 8
  %4 = getelementptr inbounds nuw %"class.grpc_core::LoadBalancingPolicy::ParentOwningDelegatingChannelControlHelper", ptr %3, i32 0, i32 1
  %5 = call noundef ptr @_ZNK9grpc_core13RefCountedPtrINS_19LoadBalancingPolicyEE3getEv(ptr noundef nonnull align 8 dereferenceable(8) %4)
  ret ptr %5
}

; Function Attrs: mustprogress uwtable
define internal void @_ZN9grpc_core12_GLOBAL__N_16GrpcLb6Helper19RequestReresolutionEv(ptr noundef nonnull align 8 dereferenceable(16) %0) unnamed_addr #4 align 2 {
  %2 = alloca ptr, align 8
  store ptr %0, ptr %2, align 8, !tbaa !1109
  %3 = load ptr, ptr %2, align 8
  %4 = call noundef ptr @_ZNK9grpc_core19LoadBalancingPolicy42ParentOwningDelegatingChannelControlHelperINS_12_GLOBAL__N_16GrpcLbEE6parentEv(ptr noundef nonnull align 8 dereferenceable(16) %3)
  %5 = getelementptr inbounds nuw %"class.grpc_core::(anonymous namespace)::GrpcLb", ptr %4, i32 0, i32 3
  %6 = load i8, ptr %5, align 8, !tbaa !438, !range !113, !noundef !114
  %7 = trunc i8 %6 to i1
  br i1 %7, label %8, label %9

8:                                                ; preds = %1
  br label %21

9:                                                ; preds = %1
  %10 = call noundef ptr @_ZNK9grpc_core19LoadBalancingPolicy42ParentOwningDelegatingChannelControlHelperINS_12_GLOBAL__N_16GrpcLbEE6parentEv(ptr noundef nonnull align 8 dereferenceable(16) %3)
  %11 = getelementptr inbounds nuw %"class.grpc_core::(anonymous namespace)::GrpcLb", ptr %10, i32 0, i32 13
  %12 = load i8, ptr %11, align 8, !tbaa !505, !range !113, !noundef !114
  %13 = trunc i8 %12 to i1
  br i1 %13, label %15, label %14

14:                                               ; preds = %9
  br label %21

15:                                               ; preds = %9
  %16 = call noundef ptr @_ZNK9grpc_core19LoadBalancingPolicy42ParentOwningDelegatingChannelControlHelperINS_12_GLOBAL__N_16GrpcLbEE6parentEv(ptr noundef nonnull align 8 dereferenceable(16) %3)
  %17 = call noundef ptr @_ZNK9grpc_core19LoadBalancingPolicy22channel_control_helperEv(ptr noundef nonnull align 8 dereferenceable(56) %16)
  %18 = load ptr, ptr %17, align 8, !tbaa !50
  %19 = getelementptr inbounds ptr, ptr %18, i64 4
  %20 = load ptr, ptr %19, align 8
  call void %20(ptr noundef nonnull align 8 dereferenceable(8) %17)
  br label %21

21:                                               ; preds = %15, %14, %8
  ret void
}