; Function Attrs: mustprogress uwtable
define internal void @_ZN9grpc_core12_GLOBAL__N_16GrpcLb6Helper19RequestReresolutionEv(ptr noundef nonnull readonly align 8 captures(none) dereferenceable(16) %0) unnamed_addr #3 align 2 {
  %2 = getelementptr inbounds nuw i8, ptr %0, i64 8
  %.val = load ptr, ptr %2, align 8, !tbaa !357
  %3 = getelementptr inbounds nuw i8, ptr %.val, i64 72
  %4 = load i8, ptr %3, align 8, !tbaa !136, !range !96, !noundef !97
  %5 = trunc nuw i8 %4 to i1
  br i1 %5, label %16, label %6

6:                                                ; preds = %1
  %7 = getelementptr inbounds nuw i8, ptr %.val, i64 496
  %8 = load i8, ptr %7, align 8, !tbaa !205, !range !96, !noundef !97
  %9 = trunc nuw i8 %8 to i1
  br i1 %9, label %10, label %16

10:                                               ; preds = %6
  %11 = getelementptr inbounds nuw i8, ptr %.val, i64 40
  %12 = load ptr, ptr %11, align 8, !tbaa !131
  %13 = load ptr, ptr %12, align 8, !tbaa !6
  %14 = getelementptr inbounds nuw i8, ptr %13, i64 32
  %15 = load ptr, ptr %14, align 8
  tail call void %15(ptr noundef nonnull align 8 dereferenceable(8) %12)
  br label %16

16:                                               ; preds = %6, %1, %10
  ret void
}